; Function Attrs: nounwind uwtable
define internal void @fn_version_fl(ptr noundef %0, i32 noundef %1) #0 {
  %3 = alloca %struct.strbuf, align 8
  call void @llvm.lifetime.start.p0(i64 24, ptr nonnull %3) #7
  call void @llvm.memcpy.p0.p0.i64(ptr noundef nonnull align 8 dereferenceable(24) %3, ptr noundef nonnull align 8 dereferenceable(24) @__const.fn_counter.buf_payload, i64 24, i1 false)
  call void (ptr, ptr, ...) @strbuf_addf(ptr noundef nonnull %3, ptr noundef nonnull @.str, ptr noundef nonnull @git_version_string) #7
  call fastcc void @normal_io_write_fl(ptr noundef %0, i32 noundef %1, ptr noundef %3)
  call void @strbuf_release(ptr noundef nonnull %3) #7
  call void @llvm.lifetime.end.p0(i64 24, ptr nonnull %3) #7
  ret void
}